; Function Attrs: nounwind uwtable
define dso_local void @free_ref_cache(ptr noundef %0) local_unnamed_addr #0 {
  %.not = icmp eq ptr %0, null
  br i1 %.not, label %4, label %2

2:                                                ; preds = %1
  %3 = load ptr, ptr %0, align 8, !tbaa !25
  tail call fastcc void @free_ref_entry(ptr noundef %3)
  tail call void @free(ptr noundef nonnull %0) #11
  br label %4

4:                                                ; preds = %1, %2
  ret void
}